; Function Attrs: mustprogress uwtable
define noundef i32 @_ZN4base26PersistentSampleMapRecords7GetNextEv(ptr noundef nonnull align 8 dereferenceable(80) %0) local_unnamed_addr #0 align 2 personality ptr @__gxx_personality_v0 {
  %2 = getelementptr inbounds nuw i8, ptr %0, i64 32
  %3 = getelementptr inbounds nuw i8, ptr %0, i64 40
  %4 = load ptr, ptr %3, align 8, !tbaa !51
  %5 = load ptr, ptr %2, align 8, !tbaa !52
  %6 = ptrtoint ptr %4 to i64
  %7 = ptrtoint ptr %5 to i64
  %8 = sub i64 %6, %7
  %9 = ashr exact i64 %8, 2
  %10 = getelementptr inbounds nuw i8, ptr %0, i64 24
  %11 = load i64, ptr %10, align 8, !tbaa !38
  %12 = icmp eq i64 %9, %11
  br i1 %12, label %13, label %16

13:                                               ; preds = %1
  %14 = load ptr, ptr %0, align 8, !tbaa !57
  %15 = tail call noundef zeroext i1 @_ZN4base36PersistentSparseHistogramDataManager11LoadRecordsEPNS_26PersistentSampleMapRecordsE(ptr noundef nonnull align 8 dereferenceable(112) %14, ptr noundef nonnull %0)
  br i1 %15, label %._crit_edge, label %22

._crit_edge:                                      ; preds = %13
  %.pre = load i64, ptr %10, align 8, !tbaa !38
  %.pre2 = load ptr, ptr %2, align 8, !tbaa !52
  br label %16

16:                                               ; preds = %._crit_edge, %1
  %17 = phi ptr [ %.pre2, %._crit_edge ], [ %5, %1 ]
  %18 = phi i64 [ %.pre, %._crit_edge ], [ %11, %1 ]
  %19 = add i64 %18, 1
  store i64 %19, ptr %10, align 8, !tbaa !38
  %20 = getelementptr inbounds nuw i32, ptr %17, i64 %18
  %21 = load i32, ptr %20, align 4, !tbaa !55
  br label %22

22:                                               ; preds = %13, %16
  %.0 = phi i32 [ %21, %16 ], [ 0, %13 ]
  ret i32 %.0
}